target datalayout = "e-m:e-p270:32:32-p271:32:32-p272:64:64-i64:64-i128:128-f80:128-n8:16:32:64-S128"
target triple = "x86_64-unknown-linux-gnu"

%"class.hermes::Value" = type { i8, %"class.hermes::Type", %"class.llvh::SmallVector" }
%"class.hermes::Type" = type { i16, i16 }
%"class.llvh::SmallVector" = type { %"class.llvh::SmallVectorImpl", %"struct.llvh::SmallVectorStorage" }
%"class.llvh::SmallVectorImpl" = type { %"class.llvh::SmallVectorTemplateBase" }
%"class.llvh::SmallVectorTemplateBase" = type { %"class.llvh::SmallVectorTemplateCommon" }
%"class.llvh::SmallVectorTemplateCommon" = type { %"class.llvh::SmallVectorBase" }
%"class.llvh::SmallVectorBase" = type { ptr, i32, i32 }
%"struct.llvh::SmallVectorStorage" = type { [2 x %"struct.llvh::AlignedCharArrayUnion"] }
%"struct.llvh::AlignedCharArrayUnion" = type { %"struct.llvh::AlignedCharArray" }
%"struct.llvh::AlignedCharArray" = type { [8 x i8] }
%"class.hermes::Instruction" = type <{ %"class.llvh::ilist_node_with_parent", %"class.hermes::Value", ptr, %"class.llvh::SmallVector.0", ptr, %"class.llvh::SMLoc", i32, [4 x i8] }>
%"class.llvh::ilist_node_with_parent" = type { %"class.llvh::ilist_node" }
%"class.llvh::ilist_node" = type { %"class.llvh::ilist_node_impl" }
%"class.llvh::ilist_node_impl" = type { %"class.llvh::ilist_node_base" }
%"class.llvh::ilist_node_base" = type { ptr, ptr }
%"class.llvh::SmallVector.0" = type { %"class.llvh::SmallVectorImpl.1", %"struct.llvh::SmallVectorStorage.4" }
%"class.llvh::SmallVectorImpl.1" = type { %"class.llvh::SmallVectorTemplateBase.2" }
%"class.llvh::SmallVectorTemplateBase.2" = type { %"class.llvh::SmallVectorTemplateCommon.3" }
%"class.llvh::SmallVectorTemplateCommon.3" = type { %"class.llvh::SmallVectorBase" }
%"struct.llvh::SmallVectorStorage.4" = type { [2 x %"struct.llvh::AlignedCharArrayUnion.5"] }
%"struct.llvh::AlignedCharArrayUnion.5" = type { %"struct.llvh::AlignedCharArray.6" }
%"struct.llvh::AlignedCharArray.6" = type { [16 x i8] }
%"class.llvh::SMLoc" = type { ptr }
%"struct.std::pair" = type <{ ptr, i32, [4 x i8] }>

; Function Attrs: mustprogress nounwind uwtable
define linkonce_odr hidden void @_ZN4llvh15SmallVectorBase8set_sizeEm(ptr noundef nonnull align 8 dereferenceable(16) %this, i64 noundef %Size) #0 comdat align 2 {
entry:
  %this.addr = alloca ptr, align 8
  %Size.addr = alloca i64, align 8
  store ptr %this, ptr %this.addr, align 8
  store i64 %Size, ptr %Size.addr, align 8
  %this1 = load ptr, ptr %this.addr, align 8
  %0 = load i64, ptr %Size.addr, align 8
  %conv = trunc i64 %0 to i32
  %Size2 = getelementptr inbounds %"class.llvh::SmallVectorBase", ptr %this1, i32 0, i32 1
  store i32 %conv, ptr %Size2, align 8
  ret void
}

; Function Attrs: mustprogress nounwind uwtable
define linkonce_odr hidden noundef nonnull align 8 dereferenceable(12) ptr @_ZNSt4pairIPN6hermes5ValueEjEaSEOS3_(ptr noundef nonnull align 8 dereferenceable(12) %this, ptr noundef nonnull align 8 dereferenceable(12) %__p) #0 comdat align 2 {
entry:
  %this.addr = alloca ptr, align 8
  %__p.addr = alloca ptr, align 8
  store ptr %this, ptr %this.addr, align 8
  store ptr %__p, ptr %__p.addr, align 8
  %this1 = load ptr, ptr %this.addr, align 8
  %0 = load ptr, ptr %__p.addr, align 8
  %first = getelementptr inbounds %"struct.std::pair", ptr %0, i32 0, i32 0
  %1 = load ptr, ptr %first, align 8
  %first2 = getelementptr inbounds %"struct.std::pair", ptr %this1, i32 0, i32 0
  store ptr %1, ptr %first2, align 8
  %2 = load ptr, ptr %__p.addr, align 8
  %second = getelementptr inbounds %"struct.std::pair", ptr %2, i32 0, i32 1
  %3 = load i32, ptr %second, align 4
  %second3 = getelementptr inbounds %"struct.std::pair", ptr %this1, i32 0, i32 1
  store i32 %3, ptr %second3, align 8
  ret ptr %this1
}

; Function Attrs: mustprogress nounwind uwtable
define linkonce_odr hidden void @_ZNSt4pairIPN6hermes5ValueEjEC2IS2_RjTnNSt9enable_ifIXaaclsr5_PCCPE22_MoveConstructiblePairIT_T0_EEclsr5_PCCPE30_ImplicitlyMoveConvertiblePairIS7_S8_EEEbE4typeELb1EEEOS7_OS8_(ptr noundef nonnull align 8 dereferenceable(12) %this, ptr noundef nonnull align 8 dereferenceable(8) %__x, ptr noundef nonnull align 4 dereferenceable(4) %__y) unnamed_addr #0 comdat align 2 {
entry:
  %this.addr = alloca ptr, align 8
  %__x.addr = alloca ptr, align 8
  %__y.addr = alloca ptr, align 8
  store ptr %this, ptr %this.addr, align 8
  store ptr %__x, ptr %__x.addr, align 8
  store ptr %__y, ptr %__y.addr, align 8
  %this1 = load ptr, ptr %this.addr, align 8
  %first = getelementptr inbounds %"struct.std::pair", ptr %this1, i32 0, i32 0
  %0 = load ptr, ptr %__x.addr, align 8
  %1 = load ptr, ptr %0, align 8
  store ptr %1, ptr %first, align 8
  %second = getelementptr inbounds %"struct.std::pair", ptr %this1, i32 0, i32 1
  %2 = load ptr, ptr %__y.addr, align 8
  %3 = load i32, ptr %2, align 4
  store i32 %3, ptr %second, align 8
  ret void
}

; Function Attrs: mustprogress nounwind uwtable
define linkonce_odr hidden noundef zeroext i1 @_ZSteqIPN6hermes5ValueEjEbRKSt4pairIT_T0_ES8_(ptr noundef nonnull align 8 dereferenceable(12) %__x, ptr noundef nonnull align 8 dereferenceable(12) %__y) #0 comdat {
entry:
  %__x.addr = alloca ptr, align 8
  %__y.addr = alloca ptr, align 8
  store ptr %__x, ptr %__x.addr, align 8
  store ptr %__y, ptr %__y.addr, align 8
  %0 = load ptr, ptr %__x.addr, align 8
  %first = getelementptr inbounds %"struct.std::pair", ptr %0, i32 0, i32 0
  %1 = load ptr, ptr %first, align 8
  %2 = load ptr, ptr %__y.addr, align 8
  %first1 = getelementptr inbounds %"struct.std::pair", ptr %2, i32 0, i32 0
  %3 = load ptr, ptr %first1, align 8
  %cmp = icmp eq ptr %1, %3
  br i1 %cmp, label %land.rhs, label %land.end

land.rhs:                                         ; preds = %entry
  %4 = load ptr, ptr %__x.addr, align 8
  %second = getelementptr inbounds %"struct.std::pair", ptr %4, i32 0, i32 1
  %5 = load i32, ptr %second, align 8
  %6 = load ptr, ptr %__y.addr, align 8
  %second2 = getelementptr inbounds %"struct.std::pair", ptr %6, i32 0, i32 1
  %7 = load i32, ptr %second2, align 8
  %cmp3 = icmp eq i32 %5, %7
  br label %land.end

land.end:                                         ; preds = %land.rhs, %entry
  %8 = phi i1 [ false, %entry ], [ %cmp3, %land.rhs ]
  ret i1 %8
}

; Function Attrs: mustprogress nounwind uwtable
define linkonce_odr hidden void @_ZNSt4pairIPN6hermes5ValueEjEC2IS2_jTnNSt9enable_ifIXaaclsr5_PCCPE22_MoveConstructiblePairIT_T0_EEclsr5_PCCPE30_ImplicitlyMoveConvertiblePairIS6_S7_EEEbE4typeELb1EEEOS6_OS7_(ptr noundef nonnull align 8 dereferenceable(12) %this, ptr noundef nonnull align 8 dereferenceable(8) %__x, ptr noundef nonnull align 4 dereferenceable(4) %__y) unnamed_addr #0 comdat align 2 {
entry:
  %this.addr = alloca ptr, align 8
  %__x.addr = alloca ptr, align 8
  %__y.addr = alloca ptr, align 8
  store ptr %this, ptr %this.addr, align 8
  store ptr %__x, ptr %__x.addr, align 8
  store ptr %__y, ptr %__y.addr, align 8
  %this1 = load ptr, ptr %this.addr, align 8
  %first = getelementptr inbounds %"struct.std::pair", ptr %this1, i32 0, i32 0
  %0 = load ptr, ptr %__x.addr, align 8
  %1 = load ptr, ptr %0, align 8
  store ptr %1, ptr %first, align 8
  %second = getelementptr inbounds %"struct.std::pair", ptr %this1, i32 0, i32 1
  %2 = load ptr, ptr %__y.addr, align 8
  %3 = load i32, ptr %2, align 4
  store i32 %3, ptr %second, align 8
  ret void
}

; Function Attrs: mustprogress nounwind uwtable
define linkonce_odr hidden noundef i64 @_ZNK4llvh15SmallVectorBase4sizeEv(ptr noundef nonnull align 8 dereferenceable(16) %this) #0 comdat align 2 {
entry:
  %this.addr = alloca ptr, align 8
  store ptr %this, ptr %this.addr, align 8
  %this1 = load ptr, ptr %this.addr, align 8
  %Size = getelementptr inbounds %"class.llvh::SmallVectorBase", ptr %this1, i32 0, i32 1
  %0 = load i32, ptr %Size, align 8
  %conv = zext i32 %0 to i64
  ret i64 %conv
}

; Function Attrs: mustprogress nounwind uwtable
define linkonce_odr hidden void @_ZN4llvh23SmallVectorTemplateBaseIPN6hermes11InstructionELb1EE8pop_backEv(ptr noundef nonnull align 8 dereferenceable(16) %this) #0 comdat align 2 {
entry:
  %this.addr = alloca ptr, align 8
  store ptr %this, ptr %this.addr, align 8
  %this1 = load ptr, ptr %this.addr, align 8
  %call = call noundef i64 @_ZNK4llvh15SmallVectorBase4sizeEv(ptr noundef nonnull align 8 dereferenceable(16) %this1)
  %sub = sub i64 %call, 1
  call void @_ZN4llvh15SmallVectorBase8set_sizeEm(ptr noundef nonnull align 8 dereferenceable(16) %this1, i64 noundef %sub)
  ret void
}

; Function Attrs: mustprogress nounwind uwtable
define linkonce_odr hidden noundef nonnull align 8 dereferenceable(8) ptr @_ZN4llvh25SmallVectorTemplateCommonIPN6hermes11InstructionEvE4backEv(ptr noundef nonnull align 8 dereferenceable(16) %this) #0 comdat align 2 {
entry:
  %this.addr.i.i = alloca ptr, align 8
  %this.addr.i = alloca ptr, align 8
  %this.addr = alloca ptr, align 8
  store ptr %this, ptr %this.addr, align 8
  %this1 = load ptr, ptr %this.addr, align 8
  store ptr %this1, ptr %this.addr.i, align 8
  %this1.i = load ptr, ptr %this.addr.i, align 8
  store ptr %this1.i, ptr %this.addr.i.i, align 8
  %this1.i.i = load ptr, ptr %this.addr.i.i, align 8
  %0 = load ptr, ptr %this1.i.i, align 8
  %call2.i = call noundef i64 @_ZNK4llvh15SmallVectorBase4sizeEv(ptr noundef nonnull align 8 dereferenceable(16) %this1.i)
  %add.ptr.i = getelementptr inbounds ptr, ptr %0, i64 %call2.i
  %arrayidx = getelementptr inbounds ptr, ptr %add.ptr.i, i64 -1
  ret ptr %arrayidx
}

; Function Attrs: mustprogress nounwind uwtable
define hidden void @_ZN6hermes5Value9removeUseESt4pairIPS0_jE(ptr noundef nonnull align 8 dereferenceable(40) %this, ptr %U.coerce0, i32 %U.coerce1) #0 align 2 {
entry:
  %this.addr.i52 = alloca ptr, align 8
  %this.addr.i50 = alloca ptr, align 8
  %this.addr.i48 = alloca ptr, align 8
  %this.addr.i46 = alloca ptr, align 8
  %this.addr.i41 = alloca ptr, align 8
  %idx.addr.i42 = alloca i64, align 8
  %this.addr.i36 = alloca ptr, align 8
  %idx.addr.i37 = alloca i64, align 8
  %this.addr.i31 = alloca ptr, align 8
  %idx.addr.i32 = alloca i64, align 8
  %this.addr.i = alloca ptr, align 8
  %idx.addr.i = alloca i64, align 8
  %U = alloca %"struct.std::pair", align 8
  %this.addr = alloca ptr, align 8
  %oldUse = alloca %"struct.std::pair", align 8
  %ref.tmp = alloca ptr, align 8
  %ref.tmp9 = alloca i32, align 4
  %operands = alloca ptr, align 8
  %i = alloca i32, align 4
  %e = alloca i32, align 4
  %ref.tmp24 = alloca %"struct.std::pair", align 8
  %ref.tmp25 = alloca ptr, align 8
  %0 = getelementptr inbounds { ptr, i32 }, ptr %U, i32 0, i32 0
  store ptr %U.coerce0, ptr %0, align 8
  %1 = getelementptr inbounds { ptr, i32 }, ptr %U, i32 0, i32 1
  store i32 %U.coerce1, ptr %1, align 8
  store ptr %this, ptr %this.addr, align 8
  %this1 = load ptr, ptr %this.addr, align 8
  %Users = getelementptr inbounds %"class.hermes::Value", ptr %this1, i32 0, i32 2
  %call = call noundef nonnull align 8 dereferenceable(8) ptr @_ZN4llvh25SmallVectorTemplateCommonIPN6hermes11InstructionEvE4backEv(ptr noundef nonnull align 8 dereferenceable(16) %Users)
  %2 = load ptr, ptr %call, align 8
  %Users2 = getelementptr inbounds %"class.hermes::Value", ptr %this1, i32 0, i32 2
  %second = getelementptr inbounds %"struct.std::pair", ptr %U, i32 0, i32 1
  %3 = load i32, ptr %second, align 8
  %conv = zext i32 %3 to i64
  store ptr %Users2, ptr %this.addr.i31, align 8
  store i64 %conv, ptr %idx.addr.i32, align 8
  %this1.i33 = load ptr, ptr %this.addr.i31, align 8
  store ptr %this1.i33, ptr %this.addr.i46, align 8
  %this1.i47 = load ptr, ptr %this.addr.i46, align 8
  %4 = load ptr, ptr %this1.i47, align 8
  %5 = load i64, ptr %idx.addr.i32, align 8
  %arrayidx.i35 = getelementptr inbounds ptr, ptr %4, i64 %5
  store ptr %2, ptr %arrayidx.i35, align 8
  %Users4 = getelementptr inbounds %"class.hermes::Value", ptr %this1, i32 0, i32 2
  call void @_ZN4llvh23SmallVectorTemplateBaseIPN6hermes11InstructionELb1EE8pop_backEv(ptr noundef nonnull align 8 dereferenceable(16) %Users4)
  %second5 = getelementptr inbounds %"struct.std::pair", ptr %U, i32 0, i32 1
  %6 = load i32, ptr %second5, align 8
  %conv6 = zext i32 %6 to i64
  %Users7 = getelementptr inbounds %"class.hermes::Value", ptr %this1, i32 0, i32 2
  %call8 = call noundef i64 @_ZNK4llvh15SmallVectorBase4sizeEv(ptr noundef nonnull align 8 dereferenceable(16) %Users7)
  %cmp = icmp ne i64 %conv6, %call8
  br i1 %cmp, label %if.then, label %if.end30

if.then:                                          ; preds = %entry
  store ptr %this1, ptr %ref.tmp, align 8
  %Users10 = getelementptr inbounds %"class.hermes::Value", ptr %this1, i32 0, i32 2
  %call11 = call noundef i64 @_ZNK4llvh15SmallVectorBase4sizeEv(ptr noundef nonnull align 8 dereferenceable(16) %Users10)
  %conv12 = trunc i64 %call11 to i32
  store i32 %conv12, ptr %ref.tmp9, align 4
  call void @_ZNSt4pairIPN6hermes5ValueEjEC2IS2_jTnNSt9enable_ifIXaaclsr5_PCCPE22_MoveConstructiblePairIT_T0_EEclsr5_PCCPE30_ImplicitlyMoveConvertiblePairIS6_S7_EEEbE4typeELb1EEEOS6_OS7_(ptr noundef nonnull align 8 dereferenceable(12) %oldUse, ptr noundef nonnull align 8 dereferenceable(8) %ref.tmp, ptr noundef nonnull align 4 dereferenceable(4) %ref.tmp9)
  %Users13 = getelementptr inbounds %"class.hermes::Value", ptr %this1, i32 0, i32 2
  %second14 = getelementptr inbounds %"struct.std::pair", ptr %U, i32 0, i32 1
  %7 = load i32, ptr %second14, align 8
  %conv15 = zext i32 %7 to i64
  store ptr %Users13, ptr %this.addr.i, align 8
  store i64 %conv15, ptr %idx.addr.i, align 8
  %this1.i = load ptr, ptr %this.addr.i, align 8
  store ptr %this1.i, ptr %this.addr.i48, align 8
  %this1.i49 = load ptr, ptr %this.addr.i48, align 8
  %8 = load ptr, ptr %this1.i49, align 8
  %9 = load i64, ptr %idx.addr.i, align 8
  %arrayidx.i = getelementptr inbounds ptr, ptr %8, i64 %9
  %10 = load ptr, ptr %arrayidx.i, align 8
  %Operands = getelementptr inbounds %"class.hermes::Instruction", ptr %10, i32 0, i32 3
  store ptr %Operands, ptr %operands, align 8
  store i32 0, ptr %i, align 4
  %11 = load ptr, ptr %operands, align 8
  %call17 = call noundef i64 @_ZNK4llvh15SmallVectorBase4sizeEv(ptr noundef nonnull align 8 dereferenceable(16) %11)
  %conv18 = trunc i64 %call17 to i32
  store i32 %conv18, ptr %e, align 4
  br label %for.cond

for.cond:                                         ; preds = %for.inc, %if.then
  %12 = load i32, ptr %i, align 4
  %13 = load i32, ptr %e, align 4
  %cmp19 = icmp slt i32 %12, %13
  br i1 %cmp19, label %for.body, label %for.end

for.body:                                         ; preds = %for.cond
  %14 = load ptr, ptr %operands, align 8
  %15 = load i32, ptr %i, align 4
  %conv20 = sext i32 %15 to i64
  store ptr %14, ptr %this.addr.i41, align 8
  store i64 %conv20, ptr %idx.addr.i42, align 8
  %this1.i43 = load ptr, ptr %this.addr.i41, align 8
  store ptr %this1.i43, ptr %this.addr.i50, align 8
  %this1.i51 = load ptr, ptr %this.addr.i50, align 8
  %16 = load ptr, ptr %this1.i51, align 8
  %17 = load i64, ptr %idx.addr.i42, align 8
  %arrayidx.i45 = getelementptr inbounds %"struct.std::pair", ptr %16, i64 %17
  %call22 = call noundef zeroext i1 @_ZSteqIPN6hermes5ValueEjEbRKSt4pairIT_T0_ES8_(ptr noundef nonnull align 8 dereferenceable(12) %arrayidx.i45, ptr noundef nonnull align 8 dereferenceable(12) %oldUse)
  br i1 %call22, label %if.then23, label %if.end

if.then23:                                        ; preds = %for.body
  store ptr %this1, ptr %ref.tmp25, align 8
  %second26 = getelementptr inbounds %"struct.std::pair", ptr %U, i32 0, i32 1
  call void @_ZNSt4pairIPN6hermes5ValueEjEC2IS2_RjTnNSt9enable_ifIXaaclsr5_PCCPE22_MoveConstructiblePairIT_T0_EEclsr5_PCCPE30_ImplicitlyMoveConvertiblePairIS7_S8_EEEbE4typeELb1EEEOS7_OS8_(ptr noundef nonnull align 8 dereferenceable(12) %ref.tmp24, ptr noundef nonnull align 8 dereferenceable(8) %ref.tmp25, ptr noundef nonnull align 4 dereferenceable(4) %second26)
  %18 = load ptr, ptr %operands, align 8
  %19 = load i32, ptr %i, align 4
  %conv27 = sext i32 %19 to i64
  store ptr %18, ptr %this.addr.i36, align 8
  store i64 %conv27, ptr %idx.addr.i37, align 8
  %this1.i38 = load ptr, ptr %this.addr.i36, align 8
  store ptr %this1.i38, ptr %this.addr.i52, align 8
  %this1.i53 = load ptr, ptr %this.addr.i52, align 8
  %20 = load ptr, ptr %this1.i53, align 8
  %21 = load i64, ptr %idx.addr.i37, align 8
  %arrayidx.i40 = getelementptr inbounds %"struct.std::pair", ptr %20, i64 %21
  %call29 = call noundef nonnull align 8 dereferenceable(12) ptr @_ZNSt4pairIPN6hermes5ValueEjEaSEOS3_(ptr noundef nonnull align 8 dereferenceable(12) %arrayidx.i40, ptr noundef nonnull align 8 dereferenceable(12) %ref.tmp24) #10
  br label %if.end30

if.end:                                           ; preds = %for.body
  br label %for.inc

for.inc:                                          ; preds = %if.end
  %22 = load i32, ptr %i, align 4
  %inc = add nsw i32 %22, 1
  store i32 %inc, ptr %i, align 4
  br label %for.cond, !llvm.loop !4

for.end:                                          ; preds = %for.cond
  unreachable

if.end30:                                         ; preds = %if.then23, %entry
  ret void
}