; Function Attrs: mustprogress nofree norecurse nosync nounwind memory(readwrite, inaccessiblemem: write) uwtable
define hidden void @_ZN6hermes5Value9removeUseESt4pairIPS0_jE(ptr noundef nonnull align 8 dereferenceable(40) %this, ptr nocapture readnone %U.coerce0, i32 %U.coerce1) local_unnamed_addr #3 align 2 {
entry:
  %Users = getelementptr inbounds i8, ptr %this, i64 8
  %0 = load ptr, ptr %Users, align 8
  %Size.i.i = getelementptr inbounds i8, ptr %this, i64 16
  %1 = load i32, ptr %Size.i.i, align 8
  %conv.i.i = zext i32 %1 to i64
  %add.ptr.i.i = getelementptr inbounds ptr, ptr %0, i64 %conv.i.i
  %arrayidx.i6 = getelementptr inbounds i8, ptr %add.ptr.i.i, i64 -8
  %2 = load ptr, ptr %arrayidx.i6, align 8
  %conv = zext i32 %U.coerce1 to i64
  %arrayidx.i35 = getelementptr inbounds ptr, ptr %0, i64 %conv
  store ptr %2, ptr %arrayidx.i35, align 8
  %3 = load i32, ptr %Size.i.i, align 8
  %sub.i = add i32 %3, -1
  store i32 %sub.i, ptr %Size.i.i, align 8
  %cmp.not = icmp eq i32 %sub.i, %U.coerce1
  br i1 %cmp.not, label %if.end30, label %if.then

if.then:                                          ; preds = %entry
  %4 = load ptr, ptr %Users, align 8
  %arrayidx.i = getelementptr inbounds ptr, ptr %4, i64 %conv
  %5 = load ptr, ptr %arrayidx.i, align 8
  %Operands = getelementptr inbounds i8, ptr %5, i64 64
  %Size.i10 = getelementptr inbounds i8, ptr %5, i64 72
  %6 = load i32, ptr %Size.i10, align 8
  %7 = load ptr, ptr %Operands, align 8
  %8 = sext i32 %6 to i64
  br label %for.cond

for.cond:                                         ; preds = %for.cond, %if.then
  %indvars.iv = phi i64 [ %indvars.iv.next, %for.cond ], [ 0, %if.then ]
  %cmp19 = icmp slt i64 %indvars.iv, %8
  tail call void @llvm.assume(i1 %cmp19)
  %arrayidx.i45 = getelementptr inbounds %"struct.std::pair", ptr %7, i64 %indvars.iv
  %9 = load ptr, ptr %arrayidx.i45, align 8
  %cmp.i = icmp eq ptr %9, %this
  %second.i12 = getelementptr inbounds i8, ptr %arrayidx.i45, i64 8
  %10 = load i32, ptr %second.i12, align 8
  %cmp3.i = icmp eq i32 %10, %sub.i
  %11 = select i1 %cmp.i, i1 %cmp3.i, i1 false
  %indvars.iv.next = add nuw nsw i64 %indvars.iv, 1
  br i1 %11, label %if.then23, label %for.cond, !llvm.loop !4

if.then23:                                        ; preds = %for.cond
  %second.i12.le = getelementptr inbounds i8, ptr %arrayidx.i45, i64 8
  store ptr %this, ptr %arrayidx.i45, align 8
  store i32 %U.coerce1, ptr %second.i12.le, align 8
  br label %if.end30

if.end30:                                         ; preds = %if.then23, %entry
  ret void
}